; Function Attrs: mustprogress nofree norecurse nosync nounwind memory(readwrite, inaccessiblemem: none) uwtable
define internal void @_ZN12_GLOBAL__N_133MacroDefinitionTrackerPPCallbacks12MacroDefinedERKN5clang5TokenEPKNS1_14MacroDirectiveE(ptr noundef nonnull readonly align 8 captures(none) dereferenceable(16) %0, ptr noundef nonnull readonly align 8 captures(none) dereferenceable(20) %1, ptr readnone captures(none) %2) unnamed_addr #22 align 2 {
  %4 = getelementptr inbounds nuw i8, ptr %0, i64 8
  %5 = load ptr, ptr %4, align 8
  %6 = getelementptr inbounds nuw i8, ptr %1, i64 8
  %.val = load ptr, ptr %6, align 8
  %7 = getelementptr inbounds nuw i8, ptr %.val, i64 16
  %8 = load ptr, ptr %7, align 8
  %9 = getelementptr inbounds nuw i8, ptr %8, i64 16
  %10 = load i64, ptr %8, align 8
  %11 = and i64 %10, 4294967295
  %12 = load i32, ptr %5, align 4
  %13 = getelementptr inbounds nuw i8, ptr %9, i64 %11
  %.not12.i.i = icmp eq i64 %11, 0
  br i1 %.not12.i.i, label %_ZL21AddDefinedMacroToHashRKN5clang5TokenERj.exit, label %.lr.ph.i.i

.lr.ph.i.i:                                       ; preds = %3, %.lr.ph.i.i
  %.014.i.i = phi i32 [ %17, %.lr.ph.i.i ], [ %12, %3 ]
  %.0913.i.i = phi ptr [ %18, %.lr.ph.i.i ], [ %9, %3 ]
  %14 = load i8, ptr %.0913.i.i, align 1
  %15 = mul i32 %.014.i.i, 33
  %16 = zext i8 %14 to i32
  %17 = add i32 %15, %16
  %18 = getelementptr inbounds nuw i8, ptr %.0913.i.i, i64 1
  %.not.i.i = icmp eq ptr %18, %13
  br i1 %.not.i.i, label %_ZL21AddDefinedMacroToHashRKN5clang5TokenERj.exit, label %.lr.ph.i.i

_ZL21AddDefinedMacroToHashRKN5clang5TokenERj.exit: ; preds = %.lr.ph.i.i, %3
  %.0.lcssa.i.i = phi i32 [ %12, %3 ], [ %17, %.lr.ph.i.i ]
  store i32 %.0.lcssa.i.i, ptr %5, align 4
  ret void
}